; Function Attrs: mustprogress uwtable
define hidden noalias noundef ptr @_ZN7datalog24interval_relation_plugin11mk_widen_fnERKNS_13relation_baseES3_PS2_(ptr noundef nonnull readnone align 8 captures(address) dereferenceable(240) %0, ptr noundef nonnull readonly align 8 captures(none) dereferenceable(28) %1, ptr noundef nonnull readonly align 8 captures(none) dereferenceable(28) %2, ptr noundef readonly captures(address_is_null) %3) unnamed_addr #3 align 2 {
  %5 = getelementptr inbounds nuw i8, ptr %1, i64 8
  %6 = load ptr, ptr %5, align 8, !tbaa !48
  %7 = icmp eq ptr %6, %0
  %8 = getelementptr inbounds nuw i8, ptr %2, i64 8
  %9 = load ptr, ptr %8, align 8
  %10 = icmp eq ptr %9, %0
  %or.cond = select i1 %7, i1 %10, i1 false
  br i1 %or.cond, label %11, label %19

11:                                               ; preds = %4
  %.not = icmp eq ptr %3, null
  br i1 %.not, label %16, label %12

12:                                               ; preds = %11
  %13 = getelementptr inbounds nuw i8, ptr %3, i64 8
  %14 = load ptr, ptr %13, align 8, !tbaa !48
  %15 = icmp eq ptr %14, %0
  br i1 %15, label %16, label %19

16:                                               ; preds = %12, %11
  %17 = tail call noalias noundef ptr @_ZN6memory8allocateEm(i64 noundef 16)
  store ptr getelementptr inbounds nuw inrange(-16, 24) (i8, ptr @_ZTVN7datalog24interval_relation_plugin8union_fnE, i64 16), ptr %17, align 8, !tbaa !17
  %18 = getelementptr inbounds nuw i8, ptr %17, i64 8
  store i8 1, ptr %18, align 8, !tbaa !78
  br label %19

19:                                               ; preds = %4, %12, %16
  %.0 = phi ptr [ %17, %16 ], [ null, %12 ], [ null, %4 ]
  ret ptr %.0
}